target datalayout = "e-m:e-p270:32:32-p271:32:32-p272:64:64-i64:64-i128:128-f80:128-n8:16:32:64-S128"
target triple = "x86_64-pc-linux-gnu"

; Function Attrs: nounwind uwtable
define internal i32 @lv_text_unicode_to_utf8(i32 noundef %0) #0 {
  %2 = alloca i32, align 4
  %3 = alloca i32, align 4
  %4 = alloca [4 x i8], align 1
  %5 = alloca i32, align 4
  %6 = alloca ptr, align 8
  store i32 %0, ptr %3, align 4, !tbaa !8
  %7 = load i32, ptr %3, align 4, !tbaa !8
  %8 = icmp ult i32 %7, 128
  br i1 %8, label %9, label %11

9:                                                ; preds = %1
  %10 = load i32, ptr %3, align 4, !tbaa !8
  store i32 %10, ptr %2, align 4
  br label %88

11:                                               ; preds = %1
  call void @llvm.lifetime.start.p0(i64 4, ptr %4) #5
  %12 = load i32, ptr %3, align 4, !tbaa !8
  %13 = icmp ult i32 %12, 2048
  br i1 %13, label %14, label %29

14:                                               ; preds = %11
  %15 = load i32, ptr %3, align 4, !tbaa !8
  %16 = lshr i32 %15, 6
  %17 = and i32 %16, 31
  %18 = or i32 %17, 192
  %19 = trunc i32 %18 to i8
  %20 = getelementptr inbounds [4 x i8], ptr %4, i64 0, i64 0
  store i8 %19, ptr %20, align 1, !tbaa !7
  %21 = load i32, ptr %3, align 4, !tbaa !8
  %22 = lshr i32 %21, 0
  %23 = and i32 %22, 63
  %24 = or i32 %23, 128
  %25 = trunc i32 %24 to i8
  %26 = getelementptr inbounds [4 x i8], ptr %4, i64 0, i64 1
  store i8 %25, ptr %26, align 1, !tbaa !7
  %27 = getelementptr inbounds [4 x i8], ptr %4, i64 0, i64 2
  store i8 0, ptr %27, align 1, !tbaa !7
  %28 = getelementptr inbounds [4 x i8], ptr %4, i64 0, i64 3
  store i8 0, ptr %28, align 1, !tbaa !7
  br label %83

29:                                               ; preds = %11
  %30 = load i32, ptr %3, align 4, !tbaa !8
  %31 = icmp ult i32 %30, 65536
  br i1 %31, label %32, label %52

32:                                               ; preds = %29
  %33 = load i32, ptr %3, align 4, !tbaa !8
  %34 = lshr i32 %33, 12
  %35 = and i32 %34, 15
  %36 = or i32 %35, 224
  %37 = trunc i32 %36 to i8
  %38 = getelementptr inbounds [4 x i8], ptr %4, i64 0, i64 0
  store i8 %37, ptr %38, align 1, !tbaa !7
  %39 = load i32, ptr %3, align 4, !tbaa !8
  %40 = lshr i32 %39, 6
  %41 = and i32 %40, 63
  %42 = or i32 %41, 128
  %43 = trunc i32 %42 to i8
  %44 = getelementptr inbounds [4 x i8], ptr %4, i64 0, i64 1
  store i8 %43, ptr %44, align 1, !tbaa !7
  %45 = load i32, ptr %3, align 4, !tbaa !8
  %46 = lshr i32 %45, 0
  %47 = and i32 %46, 63
  %48 = or i32 %47, 128
  %49 = trunc i32 %48 to i8
  %50 = getelementptr inbounds [4 x i8], ptr %4, i64 0, i64 2
  store i8 %49, ptr %50, align 1, !tbaa !7
  %51 = getelementptr inbounds [4 x i8], ptr %4, i64 0, i64 3
  store i8 0, ptr %51, align 1, !tbaa !7
  br label %82

52:                                               ; preds = %29
  %53 = load i32, ptr %3, align 4, !tbaa !8
  %54 = icmp ult i32 %53, 1114112
  br i1 %54, label %55, label %80

55:                                               ; preds = %52
  %56 = load i32, ptr %3, align 4, !tbaa !8
  %57 = lshr i32 %56, 18
  %58 = and i32 %57, 7
  %59 = or i32 %58, 240
  %60 = trunc i32 %59 to i8
  %61 = getelementptr inbounds [4 x i8], ptr %4, i64 0, i64 0
  store i8 %60, ptr %61, align 1, !tbaa !7
  %62 = load i32, ptr %3, align 4, !tbaa !8
  %63 = lshr i32 %62, 12
  %64 = and i32 %63, 63
  %65 = or i32 %64, 128
  %66 = trunc i32 %65 to i8
  %67 = getelementptr inbounds [4 x i8], ptr %4, i64 0, i64 1
  store i8 %66, ptr %67, align 1, !tbaa !7
  %68 = load i32, ptr %3, align 4, !tbaa !8
  %69 = lshr i32 %68, 6
  %70 = and i32 %69, 63
  %71 = or i32 %70, 128
  %72 = trunc i32 %71 to i8
  %73 = getelementptr inbounds [4 x i8], ptr %4, i64 0, i64 2
  store i8 %72, ptr %73, align 1, !tbaa !7
  %74 = load i32, ptr %3, align 4, !tbaa !8
  %75 = lshr i32 %74, 0
  %76 = and i32 %75, 63
  %77 = or i32 %76, 128
  %78 = trunc i32 %77 to i8
  %79 = getelementptr inbounds [4 x i8], ptr %4, i64 0, i64 3
  store i8 %78, ptr %79, align 1, !tbaa !7
  br label %81

80:                                               ; preds = %52
  store i32 0, ptr %2, align 4
  store i32 1, ptr %5, align 4
  br label %87

81:                                               ; preds = %55
  br label %82

82:                                               ; preds = %81, %32
  br label %83

83:                                               ; preds = %82, %14
  call void @llvm.lifetime.start.p0(i64 8, ptr %6) #5
  %84 = getelementptr inbounds [4 x i8], ptr %4, i64 0, i64 0
  store ptr %84, ptr %6, align 8, !tbaa !3
  %85 = load ptr, ptr %6, align 8, !tbaa !3
  %86 = load i32, ptr %85, align 4, !tbaa !8
  store i32 %86, ptr %2, align 4
  store i32 1, ptr %5, align 4
  call void @llvm.lifetime.end.p0(i64 8, ptr %6) #5
  br label %87

87:                                               ; preds = %83, %80
  call void @llvm.lifetime.end.p0(i64 4, ptr %4) #5
  br label %88

88:                                               ; preds = %87, %9
  %89 = load i32, ptr %2, align 4
  ret i32 %89
}