; Function Attrs: mustprogress nofree norecurse nosync nounwind willreturn memory(none) uwtable
define internal range(i32 32768, 128) i32 @lv_text_unicode_to_utf8(i32 noundef %0) #1 {
  %2 = icmp ult i32 %0, 128
  br i1 %2, label %29, label %3

3:                                                ; preds = %1
  %4 = icmp ult i32 %0, 2048
  br i1 %4, label %5, label %8

5:                                                ; preds = %3
  %6 = lshr i32 %0, 6
  %7 = or disjoint i32 %6, 192
  br label %28

8:                                                ; preds = %3
  %9 = icmp ult i32 %0, 65536
  br i1 %9, label %10, label %16

10:                                               ; preds = %8
  %11 = lshr i32 %0, 12
  %12 = or disjoint i32 %11, 224
  %13 = lshr i32 %0, 6
  %14 = and i32 %0, 63
  %15 = or disjoint i32 %14, 128
  br label %28

16:                                               ; preds = %8
  %17 = icmp ult i32 %0, 1114112
  br i1 %17, label %18, label %29

18:                                               ; preds = %16
  %19 = lshr i32 %0, 18
  %20 = or disjoint i32 %19, 240
  %21 = lshr i32 %0, 12
  %22 = lshr i32 %0, 6
  %23 = and i32 %22, 63
  %24 = or disjoint i32 %23, 128
  %25 = shl i32 %0, 24
  %26 = and i32 %25, 1056964608
  %27 = or disjoint i32 %26, -2147450880
  br label %28

28:                                               ; preds = %10, %18, %5
  %.sroa.12.0 = phi i32 [ 32768, %5 ], [ 32768, %10 ], [ %27, %18 ]
  %.sroa.9.0 = phi i32 [ 0, %5 ], [ %15, %10 ], [ %24, %18 ]
  %.sroa.6.0.in.in.in = phi i32 [ %0, %5 ], [ %13, %10 ], [ %21, %18 ]
  %.sroa.0.0 = phi i32 [ %7, %5 ], [ %12, %10 ], [ %20, %18 ]
  %.sroa.9.0.insert.shift = shl nuw nsw i32 %.sroa.9.0, 16
  %.sroa.6.0.in = shl nuw nsw i32 %.sroa.6.0.in.in.in, 8
  %.sroa.6.0 = and i32 %.sroa.6.0.in, 16128
  %.sroa.9.0.insert.insert = or i32 %.sroa.12.0, %.sroa.9.0.insert.shift
  %.sroa.6.0.insert.insert = or i32 %.sroa.9.0.insert.insert, %.sroa.0.0
  %.sroa.0.0.insert.insert = or i32 %.sroa.6.0.insert.insert, %.sroa.6.0
  br label %29

29:                                               ; preds = %28, %16, %1
  %.0 = phi i32 [ %0, %1 ], [ %.sroa.0.0.insert.insert, %28 ], [ 0, %16 ]
  ret i32 %.0
}